; Function Attrs: mustprogress noreturn uwtable
define dso_local void @_ZN4absl17internal_statusor6Helper5CrashERKNS_6StatusE(ptr noundef nonnull align 8 dereferenceable(8) %status) local_unnamed_addr #7 align 2 personality ptr @__gxx_personality_v0 {
entry:
  %ref.tmp2 = alloca %"class.std::__cxx11::basic_string", align 8
  %ref.tmp3 = alloca %"class.absl::AlphaNum", align 8
  %ref.tmp4 = alloca %"class.absl::AlphaNum", align 8
  %ref.tmp5 = alloca %"class.std::__cxx11::basic_string", align 8
  store i64 52, ptr %ref.tmp3, align 8
  %0 = getelementptr inbounds i8, ptr %ref.tmp3, i64 8
  store ptr @.str.2, ptr %0, align 8
  call void @_ZNK4absl6Status8ToStringB5cxx11ENS_18StatusToStringModeE(ptr nonnull sret(%"class.std::__cxx11::basic_string") align 8 %ref.tmp5, ptr noundef nonnull align 8 dereferenceable(8) %status, i32 noundef 1)
  %call.i = call { i64, ptr } @_ZNKSt7__cxx1112basic_stringIcSt11char_traitsIcESaIcEEcvSt17basic_string_viewIcS2_EEv(ptr noundef nonnull align 8 dereferenceable(32) %ref.tmp5) #13
  %1 = extractvalue { i64, ptr } %call.i, 0
  store i64 %1, ptr %ref.tmp4, align 8
  %2 = getelementptr inbounds i8, ptr %ref.tmp4, i64 8
  %3 = extractvalue { i64, ptr } %call.i, 1
  store ptr %3, ptr %2, align 8
  invoke void @_ZN4absl6StrCatB5cxx11ERKNS_8AlphaNumES2_(ptr nonnull sret(%"class.std::__cxx11::basic_string") align 8 %ref.tmp2, ptr noundef nonnull align 8 dereferenceable(48) %ref.tmp3, ptr noundef nonnull align 8 dereferenceable(48) %ref.tmp4)
          to label %invoke.cont6 unwind label %lpad

invoke.cont6:                                     ; preds = %entry
  %4 = load atomic i64, ptr @_ZN4absl16raw_log_internal21internal_log_functionB5cxx11E acquire, align 8
  %atomic-temp.i.0.i.i.i = inttoptr i64 %4 to ptr
  invoke void %atomic-temp.i.0.i.i.i(i32 noundef 3, ptr noundef nonnull @.str.1, i32 noundef 89, ptr noundef nonnull align 8 dereferenceable(32) %ref.tmp2)
          to label %invoke.cont8 unwind label %lpad7

invoke.cont8:                                     ; preds = %invoke.cont6
  call void @_ZNSt7__cxx1112basic_stringIcSt11char_traitsIcESaIcEED1Ev(ptr noundef nonnull align 8 dereferenceable(32) %ref.tmp2) #13
  call void @_ZNSt7__cxx1112basic_stringIcSt11char_traitsIcESaIcEED1Ev(ptr noundef nonnull align 8 dereferenceable(32) %ref.tmp5) #13
  unreachable

lpad:                                             ; preds = %entry
  %5 = landingpad { ptr, i32 }
          cleanup
  br label %ehcleanup

lpad7:                                            ; preds = %invoke.cont6
  %6 = landingpad { ptr, i32 }
          cleanup
  call void @_ZNSt7__cxx1112basic_stringIcSt11char_traitsIcESaIcEED1Ev(ptr noundef nonnull align 8 dereferenceable(32) %ref.tmp2) #13
  br label %ehcleanup

ehcleanup:                                        ; preds = %lpad7, %lpad
  %.pn = phi { ptr, i32 } [ %6, %lpad7 ], [ %5, %lpad ]
  call void @_ZNSt7__cxx1112basic_stringIcSt11char_traitsIcESaIcEED1Ev(ptr noundef nonnull align 8 dereferenceable(32) %ref.tmp5) #13
  resume { ptr, i32 } %.pn
}